(lp0
(lp1
F13881.0
aF13911.0
aF13971.0
aF14367.0
aF13383.0
aF13923.0
aF13611.0
aF12823.0
aF15320.0
aF14073.0
aF13955.0
aF14648.0
aF15153.0
aF14124.0
aF13839.0
aF14996.0
aF13696.0
aF15004.0
aF14482.0
aF14748.0
aF14834.0
aF13954.0
aF13575.0
aF14138.0
aF13850.0
aa(lp2
F11922.0
aF11951.0
aF12371.0
aF12901.0
aF11816.0
aF12031.0
aF12238.0
aF11775.0
aF13064.0
aF12583.0
aF12360.0
aF12452.0
aF12931.0
aF12658.0
aF11959.0
aF13008.0
aF12145.0
aF13187.0
aF12162.0
aF12615.0
aF12680.0
aF11751.0
aF11998.0
aF12424.0
aF12489.0
aa(lp3
F13881.0
aF13911.0
aF13971.0
aF14367.0
aF13438.0
aF13950.0
aF13724.0
aF12823.0
aF15320.0
aF14073.0
aF13955.0
aF14648.0
aF15153.0
aF14275.0
aF13839.0
aF14996.0
aF13696.0
aF15004.0
aF14482.0
aF14748.0
aF15034.0
aF13954.0
aF13575.0
aF14138.0
aF13895.0
aa(lp4
F11925.0
aF11960.0
aF12626.0
aF12907.0
aF11826.0
aF12031.0
aF12363.0
aF11775.0
aF13153.0
aF12543.0
aF12340.0
aF12448.0
aF12972.0
aF12721.0
aF12008.0
aF13002.0
aF12163.0
aF13254.0
aF12120.0
aF12850.0
aF12789.0
aF11833.0
aF11960.0
aF12525.0
aF12603.0
aa(lp5
F11922.0
aF11951.0
aF12371.0
aF12911.0
aF11858.0
aF12009.0
aF12243.0
aF11873.0
aF13055.0
aF12578.0
aF12288.0
aF12452.0
aF12931.0
aF12676.0
aF11959.0
aF13046.0
aF12125.0
aF13222.0
aF12146.0
aF12571.0
aF12713.0
aF11751.0
aF11985.0
aF12481.0
aF12657.0
aa.